EXPORTS
	?tr@ServiceFwIPC@WRT@@SA?AVQString@@PBD0@Z @ 1 NONAME ; class QString WRT::ServiceFwIPC::tr(char const *, char const *)
	?startServer@ServiceIPCClient@WRT@@QAE_NABVQString@@0@Z @ 2 NONAME ; bool WRT::ServiceIPCClient::startServer(class QString const &, class QString const &)
	?setSessionId@ServiceFwIPC@WRT@@QAE_NH@Z @ 3 NONAME ; bool WRT::ServiceFwIPC::setSessionId(int)
	?connect@ServiceIPCClient@WRT@@QAE_NABVQString@@@Z @ 4 NONAME ; bool WRT::ServiceIPCClient::connect(class QString const &)
	?getStaticMetaObject@ServiceFwIPC@WRT@@SAABUQMetaObject@@XZ @ 5 NONAME ; struct QMetaObject const & WRT::ServiceFwIPC::getStaticMetaObject(void)
	?error@ServiceIPCClient@WRT@@IAEXH@Z @ 6 NONAME ; void WRT::ServiceIPCClient::error(int)
	?error@ServiceFwIPC@WRT@@IAEXH@Z @ 7 NONAME ; void WRT::ServiceFwIPC::error(int)
	?waitForRead@ServiceFwIPC@WRT@@AAE_NXZ @ 8 NONAME ; bool WRT::ServiceFwIPC::waitForRead(void)
	?staticMetaObject@ServiceIPCClient@WRT@@2UQMetaObject@@B @ 9 NONAME ; struct QMetaObject const WRT::ServiceIPCClient::staticMetaObject
	?qt_metacall@ServiceIPCClient@WRT@@UAEHW4Call@QMetaObject@@HPAPAX@Z @ 10 NONAME ; int WRT::ServiceIPCClient::qt_metacall(enum QMetaObject::Call, int, void * *)
	?isIPCTypeSupported@ServiceFwIPCFactory@WRT@@SA_NW4TServiceIPCBackends@2@@Z @ 11 NONAME ; bool WRT::ServiceFwIPCFactory::isIPCTypeSupported(enum WRT::TServiceIPCBackends)
	?tr@ServiceIPCClient@WRT@@SA?AVQString@@PBD0@Z @ 12 NONAME ; class QString WRT::ServiceIPCClient::tr(char const *, char const *)
	?qt_metacast@ServiceIPCClient@WRT@@UAEPAXPBD@Z @ 13 NONAME ; void * WRT::ServiceIPCClient::qt_metacast(char const *)
	??0ServiceFwIPCFactory@WRT@@QAE@XZ @ 14 NONAME ; WRT::ServiceFwIPCFactory::ServiceFwIPCFactory(void)
	?SendReceive@RServiceIPCSession@WRT@@QBEXHAAVTRequestStatus@@@Z @ 15 NONAME ; void WRT::RServiceIPCSession::SendReceive(int, class TRequestStatus &) const
	?sessionId@ServiceIPCClient@WRT@@QAEHXZ @ 16 NONAME ; int WRT::ServiceIPCClient::sessionId(void)
	?handleMessage@ServiceIPCClient@WRT@@IAEXVQByteArray@@@Z @ 17 NONAME ; void WRT::ServiceIPCClient::handleMessage(class QByteArray)
	?metaObject@ServiceFwIPC@WRT@@UBEPBUQMetaObject@@XZ @ 18 NONAME ; struct QMetaObject const * WRT::ServiceFwIPC::metaObject(void) const
	?sendAsync@ServiceFwIPC@WRT@@QAEXABVQString@@ABVQByteArray@@@Z @ 19 NONAME ; void WRT::ServiceFwIPC::sendAsync(class QString const &, class QByteArray const &)
	?trUtf8@ServiceFwIPC@WRT@@SA?AVQString@@PBD0H@Z @ 20 NONAME ; class QString WRT::ServiceFwIPC::trUtf8(char const *, char const *, int)
	?trUtf8@ServiceFwIPC@WRT@@SA?AVQString@@PBD0@Z @ 21 NONAME ; class QString WRT::ServiceFwIPC::trUtf8(char const *, char const *)
	?metaObject@ServiceIPCClient@WRT@@UBEPBUQMetaObject@@XZ @ 22 NONAME ; struct QMetaObject const * WRT::ServiceIPCClient::metaObject(void) const
	??0ServiceIPCClient@WRT@@QAE@PAVQObject@@W4TServiceIPCBackends@1@@Z @ 23 NONAME ; WRT::ServiceIPCClient::ServiceIPCClient(class QObject *, enum WRT::TServiceIPCBackends)
	??_EServiceFwIPC@WRT@@UAE@I@Z @ 24 NONAME ; WRT::ServiceFwIPC::~ServiceFwIPC(unsigned int)
	?getStaticMetaObject@ServiceIPCClient@WRT@@SAABUQMetaObject@@XZ @ 25 NONAME ; struct QMetaObject const & WRT::ServiceIPCClient::getStaticMetaObject(void)
	??1ServiceIPCClient@WRT@@UAE@XZ @ 26 NONAME ; WRT::ServiceIPCClient::~ServiceIPCClient(void)
	?readAsync@ServiceIPCClient@WRT@@IAEXVQByteArray@@@Z @ 27 NONAME ; void WRT::ServiceIPCClient::readAsync(class QByteArray)
	?trUtf8@ServiceIPCClient@WRT@@SA?AVQString@@PBD0@Z @ 28 NONAME ; class QString WRT::ServiceIPCClient::trUtf8(char const *, char const *)
	??1ServiceFwIPCFactory@WRT@@UAE@XZ @ 29 NONAME ; WRT::ServiceFwIPCFactory::~ServiceFwIPCFactory(void)
	?disconnect@ServiceIPCClient@WRT@@QAEXXZ @ 30 NONAME ; void WRT::ServiceIPCClient::disconnect(void)
	?trUtf8@ServiceIPCClient@WRT@@SA?AVQString@@PBD0H@Z @ 31 NONAME ; class QString WRT::ServiceIPCClient::trUtf8(char const *, char const *, int)
	?qt_metacast@ServiceFwIPC@WRT@@UAEPAXPBD@Z @ 32 NONAME ; void * WRT::ServiceFwIPC::qt_metacast(char const *)
	??_EServiceFwIPCFactory@WRT@@UAE@I@Z @ 33 NONAME ; WRT::ServiceFwIPCFactory::~ServiceFwIPCFactory(unsigned int)
	??0ServiceFwIPC@WRT@@QAE@PAVQObject@@W4TServiceIPCBackends@1@@Z @ 34 NONAME ; WRT::ServiceFwIPC::ServiceFwIPC(class QObject *, enum WRT::TServiceIPCBackends)
	?sendSync@ServiceFwIPC@WRT@@QAE_NABVQString@@ABVQByteArray@@@Z @ 35 NONAME ; bool WRT::ServiceFwIPC::sendSync(class QString const &, class QByteArray const &)
	?readAll@ServiceIPCClient@WRT@@QAE?AVQByteArray@@XZ @ 36 NONAME ; class QByteArray WRT::ServiceIPCClient::readAll(void)
	??1ServiceFwIPC@WRT@@UAE@XZ @ 37 NONAME ; WRT::ServiceFwIPC::~ServiceFwIPC(void)
	?getSessionId@ServiceFwIPC@WRT@@QAE_NAAH@Z @ 38 NONAME ; bool WRT::ServiceFwIPC::getSessionId(int &)
	?tr@ServiceFwIPC@WRT@@SA?AVQString@@PBD0H@Z @ 39 NONAME ; class QString WRT::ServiceFwIPC::tr(char const *, char const *, int)
	?sendSync@ServiceIPCClient@WRT@@QAE_NABVQString@@ABVQByteArray@@@Z @ 40 NONAME ; bool WRT::ServiceIPCClient::sendSync(class QString const &, class QByteArray const &)
	?readyRead@ServiceIPCClient@WRT@@IAEXXZ @ 41 NONAME ; void WRT::ServiceIPCClient::readyRead(void)
	?qt_metacall@ServiceFwIPC@WRT@@UAEHW4Call@QMetaObject@@HPAPAX@Z @ 42 NONAME ; int WRT::ServiceFwIPC::qt_metacall(enum QMetaObject::Call, int, void * *)
	?tr@ServiceIPCClient@WRT@@SA?AVQString@@PBD0H@Z @ 43 NONAME ; class QString WRT::ServiceIPCClient::tr(char const *, char const *, int)
	?subscribeBroadcastMsg@ServiceIPCClient@WRT@@AAEXXZ @ 44 NONAME ; void WRT::ServiceIPCClient::subscribeBroadcastMsg(void)
	?createBackend@ServiceFwIPCFactory@WRT@@SAPAVServiceFwIPCPrivate@2@W4TServiceIPCBackends@2@@Z @ 45 NONAME ; class WRT::ServiceFwIPCPrivate * WRT::ServiceFwIPCFactory::createBackend(enum WRT::TServiceIPCBackends)
	?handleAsyncMsg@ServiceIPCClient@WRT@@AAEXXZ @ 46 NONAME ; void WRT::ServiceIPCClient::handleAsyncMsg(void)
	?handleBroadcastMsg@ServiceIPCClient@WRT@@AAEXXZ @ 47 NONAME ; void WRT::ServiceIPCClient::handleBroadcastMsg(void)
	?staticMetaObject@ServiceFwIPC@WRT@@2UQMetaObject@@B @ 48 NONAME ; struct QMetaObject const WRT::ServiceFwIPC::staticMetaObject
	?readyRead@ServiceFwIPC@WRT@@IAEXXZ @ 49 NONAME ; void WRT::ServiceFwIPC::readyRead(void)
	?requestPending@ServiceFwIPC@WRT@@QAE_NXZ @ 50 NONAME ; bool WRT::ServiceFwIPC::requestPending(void)
	?startServer@ServiceFwIPC@WRT@@QAE_NABVQString@@0@Z @ 51 NONAME ; bool WRT::ServiceFwIPC::startServer(class QString const &, class QString const &)
	?readAll@ServiceFwIPC@WRT@@QAE?AVQByteArray@@XZ @ 52 NONAME ; class QByteArray WRT::ServiceFwIPC::readAll(void)
	?disconnect@ServiceFwIPC@WRT@@QAEXXZ @ 53 NONAME ; void WRT::ServiceFwIPC::disconnect(void)
	?sendAsync@ServiceIPCClient@WRT@@QAEXABVQString@@ABVQByteArray@@@Z @ 54 NONAME ; void WRT::ServiceIPCClient::sendAsync(class QString const &, class QByteArray const &)
	?connect@ServiceFwIPC@WRT@@QAE_NABVQString@@@Z @ 55 NONAME ; bool WRT::ServiceFwIPC::connect(class QString const &)
	??_EServiceIPCClient@WRT@@UAE@I@Z @ 56 NONAME ; WRT::ServiceIPCClient::~ServiceIPCClient(unsigned int)

