EXPORTS
	??0ServiceIPCRequest@WRT@@QAE@PAVServiceIPCSession@1@_JABVQString@@@Z @ 1 NONAME ; WRT::ServiceIPCRequest::ServiceIPCRequest(class WRT::ServiceIPCSession *, long long, class QString const &)
	?stopTimer@ServiceFwIPCServer@WRT@@AAEXXZ @ 2 NONAME ; void WRT::ServiceFwIPCServer::stopTimer(void)
	?write@ServiceIPCRequest@WRT@@QAE_NABVQByteArray@@@Z @ 3 NONAME ; bool WRT::ServiceIPCRequest::write(class QByteArray const &)
	?startTimer@ServiceFwIPCServer@WRT@@AAEXXZ @ 4 NONAME ; void WRT::ServiceFwIPCServer::startTimer(void)
	?sendMessage@ServiceFwIPCServer@WRT@@QAEXHAAVQByteArray@@@Z @ 5 NONAME ; void WRT::ServiceFwIPCServer::sendMessage(int, class QByteArray &)
	?tr@ServiceFwIPCServer@WRT@@SA?AVQString@@PBD0H@Z @ 6 NONAME ; class QString WRT::ServiceFwIPCServer::tr(char const *, char const *, int)
	?staticMetaObject@ServiceFwIPCServer@WRT@@2UQMetaObject@@B @ 7 NONAME ; struct QMetaObject const WRT::ServiceFwIPCServer::staticMetaObject
	?setClientInfo@ServiceIPCRequest@WRT@@QAEXPAVClientInfo@2@@Z @ 8 NONAME ; void WRT::ServiceIPCRequest::setClientInfo(class WRT::ClientInfo *)
	?getStaticMetaObject@ServiceFwIPCServer@WRT@@SAABUQMetaObject@@XZ @ 9 NONAME ; struct QMetaObject const & WRT::ServiceFwIPCServer::getStaticMetaObject(void)
	??1ServiceIPCRequest@WRT@@UAE@XZ @ 10 NONAME ; WRT::ServiceIPCRequest::~ServiceIPCRequest(void)
	?metaObject@ServiceFwIPCServer@WRT@@UBEPBUQMetaObject@@XZ @ 11 NONAME ; struct QMetaObject const * WRT::ServiceFwIPCServer::metaObject(void) const
	?qt_metacall@ServiceFwIPCServer@WRT@@UAEHW4Call@QMetaObject@@HPAPAX@Z @ 12 NONAME ; int WRT::ServiceFwIPCServer::qt_metacall(enum QMetaObject::Call, int, void * *)
	?tr@ServiceFwIPCServer@WRT@@SA?AVQString@@PBD0@Z @ 13 NONAME ; class QString WRT::ServiceFwIPCServer::tr(char const *, char const *)
	?broadcast@ServiceFwIPCServer@WRT@@QAEXABVQByteArray@@@Z @ 14 NONAME ; void WRT::ServiceFwIPCServer::broadcast(class QByteArray const &)
	?clientInfo@ServiceIPCRequest@WRT@@QAEPBVClientInfo@2@XZ @ 15 NONAME ; class WRT::ClientInfo const * WRT::ServiceIPCRequest::clientInfo(void)
	??_EServiceFwIPCServer@WRT@@UAE@I@Z @ 16 NONAME ; WRT::ServiceFwIPCServer::~ServiceFwIPCServer(unsigned int)
	?addRequestdata@ServiceIPCRequest@WRT@@QAE_NABVQByteArray@@@Z @ 17 NONAME ; bool WRT::ServiceIPCRequest::addRequestdata(class QByteArray const &)
	??_EServiceIPCRequest@WRT@@UAE@I@Z @ 18 NONAME ; WRT::ServiceIPCRequest::~ServiceIPCRequest(unsigned int)
	?getOperation@ServiceIPCRequest@WRT@@QAEABVQString@@XZ @ 19 NONAME ; class QString const & WRT::ServiceIPCRequest::getOperation(void)
	?trUtf8@ServiceFwIPCServer@WRT@@SA?AVQString@@PBD0@Z @ 20 NONAME ; class QString WRT::ServiceFwIPCServer::trUtf8(char const *, char const *)
	??1ServiceFwIPCServer@WRT@@UAE@XZ @ 21 NONAME ; WRT::ServiceFwIPCServer::~ServiceFwIPCServer(void)
	?disconnect@ServiceFwIPCServer@WRT@@QAEXXZ @ 22 NONAME ; void WRT::ServiceFwIPCServer::disconnect(void)
	?getData@ServiceIPCRequest@WRT@@QAEABVQByteArray@@XZ @ 23 NONAME ; class QByteArray const & WRT::ServiceIPCRequest::getData(void)
	?handleExit@ServiceFwIPCServer@WRT@@IAEXXZ @ 24 NONAME ; void WRT::ServiceFwIPCServer::handleExit(void)
	?trUtf8@ServiceFwIPCServer@WRT@@SA?AVQString@@PBD0H@Z @ 25 NONAME ; class QString WRT::ServiceFwIPCServer::trUtf8(char const *, char const *, int)
	??0ServiceFwIPCServer@WRT@@QAE@PAVMServiceIPCObserver@1@PAVQObject@@W4TServiceIPCBackends@1@@Z @ 26 NONAME ; WRT::ServiceFwIPCServer::ServiceFwIPCServer(class WRT::MServiceIPCObserver *, class QObject *, enum WRT::TServiceIPCBackends)
	?qt_metacast@ServiceFwIPCServer@WRT@@UAEPAXPBD@Z @ 27 NONAME ; void * WRT::ServiceFwIPCServer::qt_metacast(char const *)
	?configIpcServerLifetime@ServiceFwIPCServer@WRT@@QAEX_N@Z @ 28 NONAME ; void WRT::ServiceFwIPCServer::configIpcServerLifetime(bool)
	?listen@ServiceFwIPCServer@WRT@@QAE_NABVQString@@@Z @ 29 NONAME ; bool WRT::ServiceFwIPCServer::listen(class QString const &)
	?completeRequest@ServiceIPCRequest@WRT@@QAE_NXZ @ 30 NONAME ; bool WRT::ServiceIPCRequest::completeRequest(void)

