EXPORTS
	_ZN3WRT12ServiceFwIPC10disconnectEv @ 1 NONAME
	_ZN3WRT12ServiceFwIPC11qt_metacallEN11QMetaObject4CallEiPPv @ 2 NONAME
	_ZN3WRT12ServiceFwIPC11qt_metacastEPKc @ 3 NONAME
	_ZN3WRT12ServiceFwIPC11startServerERK7QStringS3_ @ 4 NONAME
	_ZN3WRT12ServiceFwIPC11waitForReadEv @ 5 NONAME
	_ZN3WRT12ServiceFwIPC12getSessionIdERi @ 6 NONAME
	_ZN3WRT12ServiceFwIPC12setSessionIdEi @ 7 NONAME
	_ZN3WRT12ServiceFwIPC14requestPendingEv @ 8 NONAME
	_ZN3WRT12ServiceFwIPC16staticMetaObjectE @ 9 NONAME DATA 16
	_ZN3WRT12ServiceFwIPC19getStaticMetaObjectEv @ 10 NONAME
	_ZN3WRT12ServiceFwIPC5errorEi @ 11 NONAME
	_ZN3WRT12ServiceFwIPC7connectERK7QString @ 12 NONAME
	_ZN3WRT12ServiceFwIPC7readAllEv @ 13 NONAME
	_ZN3WRT12ServiceFwIPC8sendSyncERK7QStringRK10QByteArray @ 14 NONAME
	_ZN3WRT12ServiceFwIPC9readyReadEv @ 15 NONAME
	_ZN3WRT12ServiceFwIPC9sendAsyncERK7QStringRK10QByteArray @ 16 NONAME
	_ZN3WRT12ServiceFwIPCC1EP7QObjectNS_19TServiceIPCBackendsE @ 17 NONAME
	_ZN3WRT12ServiceFwIPCC2EP7QObjectNS_19TServiceIPCBackendsE @ 18 NONAME
	_ZN3WRT12ServiceFwIPCD0Ev @ 19 NONAME
	_ZN3WRT12ServiceFwIPCD1Ev @ 20 NONAME
	_ZN3WRT12ServiceFwIPCD2Ev @ 21 NONAME
	_ZN3WRT16ServiceIPCClient10disconnectEv @ 22 NONAME
	_ZN3WRT16ServiceIPCClient11qt_metacallEN11QMetaObject4CallEiPPv @ 23 NONAME
	_ZN3WRT16ServiceIPCClient11qt_metacastEPKc @ 24 NONAME
	_ZN3WRT16ServiceIPCClient11startServerERK7QStringS3_ @ 25 NONAME
	_ZN3WRT16ServiceIPCClient13handleMessageE10QByteArray @ 26 NONAME
	_ZN3WRT16ServiceIPCClient14handleAsyncMsgEv @ 27 NONAME
	_ZN3WRT16ServiceIPCClient16staticMetaObjectE @ 28 NONAME DATA 16
	_ZN3WRT16ServiceIPCClient18handleBroadcastMsgEv @ 29 NONAME
	_ZN3WRT16ServiceIPCClient19getStaticMetaObjectEv @ 30 NONAME
	_ZN3WRT16ServiceIPCClient21subscribeBroadcastMsgEv @ 31 NONAME
	_ZN3WRT16ServiceIPCClient5errorEi @ 32 NONAME
	_ZN3WRT16ServiceIPCClient7connectERK7QString @ 33 NONAME
	_ZN3WRT16ServiceIPCClient7readAllEv @ 34 NONAME
	_ZN3WRT16ServiceIPCClient8sendSyncERK7QStringRK10QByteArray @ 35 NONAME
	_ZN3WRT16ServiceIPCClient9readAsyncE10QByteArray @ 36 NONAME
	_ZN3WRT16ServiceIPCClient9readyReadEv @ 37 NONAME
	_ZN3WRT16ServiceIPCClient9sendAsyncERK7QStringRK10QByteArray @ 38 NONAME
	_ZN3WRT16ServiceIPCClientC1EP7QObjectNS_19TServiceIPCBackendsE @ 39 NONAME
	_ZN3WRT16ServiceIPCClientC2EP7QObjectNS_19TServiceIPCBackendsE @ 40 NONAME
	_ZN3WRT16ServiceIPCClientD0Ev @ 41 NONAME
	_ZN3WRT16ServiceIPCClientD1Ev @ 42 NONAME
	_ZN3WRT16ServiceIPCClientD2Ev @ 43 NONAME
	_ZN3WRT19ServiceFwIPCFactory13createBackendENS_19TServiceIPCBackendsE @ 44 NONAME
	_ZN3WRT19ServiceFwIPCFactory18isIPCTypeSupportedENS_19TServiceIPCBackendsE @ 45 NONAME
	_ZN3WRT19ServiceFwIPCFactoryC1Ev @ 46 NONAME
	_ZN3WRT19ServiceFwIPCFactoryC2Ev @ 47 NONAME
	_ZN3WRT19ServiceFwIPCFactoryD0Ev @ 48 NONAME
	_ZN3WRT19ServiceFwIPCFactoryD1Ev @ 49 NONAME
	_ZN3WRT19ServiceFwIPCFactoryD2Ev @ 50 NONAME
	_ZNK3WRT12ServiceFwIPC10metaObjectEv @ 51 NONAME
	_ZNK3WRT16ServiceIPCClient10metaObjectEv @ 52 NONAME
	_ZNK3WRT18RServiceIPCSession11SendReceiveEiR14TRequestStatus @ 53 NONAME
	_ZTIN3WRT12ServiceFwIPCE @ 54 NONAME
	_ZTIN3WRT16ServiceIPCClientE @ 55 NONAME
	_ZTIN3WRT19ServiceFwIPCFactoryE @ 56 NONAME
	_ZTVN3WRT12ServiceFwIPCE @ 57 NONAME
	_ZTVN3WRT16ServiceIPCClientE @ 58 NONAME
	_ZTVN3WRT19ServiceFwIPCFactoryE @ 59 NONAME

