EXPORTS
	_ZN13DownloadEvent12getAttributeE22DownloadEventAttribute @ 1 NONAME
	_ZN13DownloadEvent5getIdEv @ 2 NONAME
	_ZN15DownloadManager12findDownloadEi @ 3 NONAME
	_ZN15DownloadManager12getAttributeE24DownloadManagerAttribute @ 4 NONAME
	_ZN15DownloadManager12setAttributeE24DownloadManagerAttributeRK8QVariant @ 5 NONAME
	_ZN15DownloadManager14createDownloadEP13QNetworkReply @ 6 NONAME
	_ZN15DownloadManager14createDownloadERK7QString12DownloadType13DownloadScope @ 7 NONAME
	_ZN15DownloadManager16currentDownloadsEv @ 8 NONAME
	_ZN15DownloadManager21registerEventReceiverEP7QObject @ 9 NONAME
	_ZN15DownloadManager23unregisterEventReceiverEP7QObject @ 10 NONAME
	_ZN15DownloadManager4initEv @ 11 NONAME
	_ZN15DownloadManager5proxyEv @ 12 NONAME
	_ZN15DownloadManager8pauseAllEv @ 13 NONAME
	_ZN15DownloadManager8setProxyERK7QStringi @ 14 NONAME
	_ZN15DownloadManager9removeAllEv @ 15 NONAME
	_ZN15DownloadManager9removeOneEP8Download @ 16 NONAME
	_ZN15DownloadManager9resumeAllEv @ 17 NONAME
	_ZN15DownloadManagerC1ERK7QString @ 18 NONAME
	_ZN15DownloadManagerC2ERK7QString @ 19 NONAME
	_ZN15DownloadManagerD0Ev @ 20 NONAME
	_ZN15DownloadManagerD1Ev @ 21 NONAME
	_ZN15DownloadManagerD2Ev @ 22 NONAME
	_ZN3WRT12ServiceFwIPC10disconnectEv @ 23 NONAME
	_ZN3WRT12ServiceFwIPC11qt_metacallEN11QMetaObject4CallEiPPv @ 24 NONAME
	_ZN3WRT12ServiceFwIPC11qt_metacastEPKc @ 25 NONAME
	_ZN3WRT12ServiceFwIPC11startServerERK7QStringS3_ @ 26 NONAME
	_ZN3WRT12ServiceFwIPC11waitForReadEv @ 27 NONAME
	_ZN3WRT12ServiceFwIPC12getSessionIdERi @ 28 NONAME
	_ZN3WRT12ServiceFwIPC12setSessionIdEi @ 29 NONAME
	_ZN3WRT12ServiceFwIPC14requestPendingEv @ 30 NONAME
	_ZN3WRT12ServiceFwIPC16staticMetaObjectE @ 31 NONAME DATA 16
	_ZN3WRT12ServiceFwIPC19getStaticMetaObjectEv @ 32 NONAME
	_ZN3WRT12ServiceFwIPC5errorEi @ 33 NONAME
	_ZN3WRT12ServiceFwIPC7connectERK7QString @ 34 NONAME
	_ZN3WRT12ServiceFwIPC7readAllEv @ 35 NONAME
	_ZN3WRT12ServiceFwIPC8sendSyncERK7QStringRK10QByteArray @ 36 NONAME
	_ZN3WRT12ServiceFwIPC9readyReadEv @ 37 NONAME
	_ZN3WRT12ServiceFwIPC9sendAsyncERK7QStringRK10QByteArray @ 38 NONAME
	_ZN3WRT12ServiceFwIPCC1EP7QObjectNS_19TServiceIPCBackendsE @ 39 NONAME
	_ZN3WRT12ServiceFwIPCC2EP7QObjectNS_19TServiceIPCBackendsE @ 40 NONAME
	_ZN3WRT12ServiceFwIPCD0Ev @ 41 NONAME
	_ZN3WRT12ServiceFwIPCD1Ev @ 42 NONAME
	_ZN3WRT12ServiceFwIPCD2Ev @ 43 NONAME
	_ZN3WRT19ServiceFwIPCFactory13createBackendENS_19TServiceIPCBackendsE @ 44 NONAME
	_ZN3WRT19ServiceFwIPCFactory18isIPCTypeSupportedENS_19TServiceIPCBackendsE @ 45 NONAME
	_ZN3WRT19ServiceFwIPCFactoryC1Ev @ 46 NONAME
	_ZN3WRT19ServiceFwIPCFactoryC2Ev @ 47 NONAME
	_ZN3WRT19ServiceFwIPCFactoryD0Ev @ 48 NONAME
	_ZN3WRT19ServiceFwIPCFactoryD1Ev @ 49 NONAME
	_ZN3WRT19ServiceFwIPCFactoryD2Ev @ 50 NONAME
	_ZNK3WRT12ServiceFwIPC10metaObjectEv @ 51 NONAME
	_ZNK3WRT18RServiceIPCSession11SendReceiveEiR14TRequestStatus @ 52 NONAME
	_ZTIN3WRT12ServiceFwIPCE @ 53 NONAME
	_ZTIN3WRT19ServiceFwIPCFactoryE @ 54 NONAME
	_ZTVN3WRT12ServiceFwIPCE @ 55 NONAME
	_ZTVN3WRT19ServiceFwIPCFactoryE @ 56 NONAME

